; Function Attrs: nounwind sspstrong uwtable
define internal range(i64 1, 0) i64 @ancillary_int(i64 noundef %0) #0 {
  %2 = alloca i64, align 8
  call void @llvm.lifetime.start.p0(i64 8, ptr nonnull %2) #10
  %.pr.i.i = load i64, ptr @ancillary_data.rbimpl_id, align 8, !tbaa !6
  %.not4.i.i = icmp eq i64 %.pr.i.i, 0
  br i1 %.not4.i.i, label %.lr.ph.i.i, label %ancillary_data.exit

.lr.ph.i.i:                                       ; preds = %1, %.lr.ph.i.i
  %3 = tail call i64 @rb_intern2(ptr noundef nonnull @.str.6, i64 noundef 4) #10
  store i64 %3, ptr @ancillary_data.rbimpl_id, align 8, !tbaa !6
  %.not.i.i = icmp eq i64 %3, 0
  br i1 %.not.i.i, label %.lr.ph.i.i, label %ancillary_data.exit, !llvm.loop !17

ancillary_data.exit:                              ; preds = %.lr.ph.i.i, %1
  %.lcssa.i.i = phi i64 [ %.pr.i.i, %1 ], [ %3, %.lr.ph.i.i ]
  %4 = tail call i64 @rb_attr_get(i64 noundef %0, i64 noundef %.lcssa.i.i) #10
  store i64 %4, ptr %2, align 8, !tbaa !6
  %5 = call i64 @rb_string_value(ptr noundef nonnull %2) #10
  %6 = load i64, ptr %2, align 8, !tbaa !6
  call void @llvm.lifetime.end.p0(i64 8, ptr nonnull %2) #10
  %7 = inttoptr i64 %6 to ptr
  %8 = getelementptr inbounds nuw i8, ptr %7, i64 16
  %9 = load i64, ptr %8, align 8, !tbaa !19
  %.not = icmp eq i64 %9, 4
  br i1 %.not, label %12, label %10

10:                                               ; preds = %ancillary_data.exit
  %11 = load i64, ptr @rb_eTypeError, align 8, !tbaa !6
  call void (i64, ptr, ...) @rb_raise(i64 noundef %11, ptr noundef nonnull @.str.54, i32 noundef 4, i64 noundef %9) #12
  unreachable

12:                                               ; preds = %ancillary_data.exit
  %13 = load i64, ptr %7, align 8, !tbaa !15, !noalias !111
  %14 = and i64 %13, 8192
  %.not.i.i4 = icmp eq i64 %14, 0
  %15 = getelementptr inbounds nuw i8, ptr %7, i64 24
  br i1 %.not.i.i4, label %RSTRING_PTR.exit, label %16

16:                                               ; preds = %12
  %.sroa.2.0.copyload.i = load ptr, ptr %15, align 8
  br label %RSTRING_PTR.exit

RSTRING_PTR.exit:                                 ; preds = %12, %16
  %.sroa.2.0.i = phi ptr [ %.sroa.2.0.copyload.i, %16 ], [ %15, %12 ]
  %17 = load i32, ptr %.sroa.2.0.i, align 1
  %18 = sext i32 %17 to i64
  %19 = shl nsw i64 %18, 1
  %20 = or disjoint i64 %19, 1
  ret i64 %20
}